target datalayout = "e-m:e-p270:32:32-p271:32:32-p272:64:64-i64:64-i128:128-f80:128-n8:16:32:64-S128"
target triple = "x86_64-pc-linux-gnu"

%struct.GetBitContext = type { ptr, ptr, i32, i32, i32 }

; Function Attrs: inlinehint nounwind willreturn memory(none) uwtable
define internal i32 @zero_extend(i32 noundef %0, i32 noundef %1) #8 {
  %3 = alloca i32, align 4
  %4 = alloca i32, align 4
  store i32 %0, ptr %3, align 4, !tbaa !60
  store i32 %1, ptr %4, align 4, !tbaa !60
  %5 = load i32, ptr %3, align 4, !tbaa !60
  %6 = load i32, ptr %4, align 4, !tbaa !60
  %7 = zext i32 %6 to i64
  %8 = sub i64 32, %7
  %9 = trunc i64 %8 to i32
  %10 = shl i32 %5, %9
  %11 = load i32, ptr %4, align 4, !tbaa !60
  %12 = zext i32 %11 to i64
  %13 = sub i64 32, %12
  %14 = trunc i64 %13 to i32
  %15 = lshr i32 %10, %14
  ret i32 %15
}

; Function Attrs: inlinehint nounwind uwtable
define internal i32 @get_bits_count(ptr noundef %0) #6 {
  %2 = alloca ptr, align 8
  store ptr %0, ptr %2, align 8, !tbaa !53
  %3 = load ptr, ptr %2, align 8, !tbaa !53
  %4 = getelementptr inbounds nuw %struct.GetBitContext, ptr %3, i32 0, i32 2
  %5 = load i32, ptr %4, align 8, !tbaa !117
  ret i32 %5
}

; Function Attrs: inlinehint nounwind uwtable
define internal i32 @get_bits(ptr noundef %0, i32 noundef %1) #6 {
  %3 = alloca ptr, align 8
  %4 = alloca i32, align 4
  %5 = alloca i32, align 4
  %6 = alloca i32, align 4
  %7 = alloca i32, align 4
  %8 = alloca i32, align 4
  store ptr %0, ptr %3, align 8, !tbaa !53
  store i32 %1, ptr %4, align 4, !tbaa !60
  call void @llvm.lifetime.start.p0(i64 4, ptr %5) #10
  call void @llvm.lifetime.start.p0(i64 4, ptr %6) #10
  %9 = load ptr, ptr %3, align 8, !tbaa !53
  %10 = getelementptr inbounds nuw %struct.GetBitContext, ptr %9, i32 0, i32 2
  %11 = load i32, ptr %10, align 8, !tbaa !117
  store i32 %11, ptr %6, align 4, !tbaa !60
  call void @llvm.lifetime.start.p0(i64 4, ptr %7) #10
  call void @llvm.lifetime.start.p0(i64 4, ptr %8) #10
  %12 = load ptr, ptr %3, align 8, !tbaa !53
  %13 = getelementptr inbounds nuw %struct.GetBitContext, ptr %12, i32 0, i32 4
  %14 = load i32, ptr %13, align 8, !tbaa !118
  store i32 %14, ptr %8, align 4, !tbaa !60
  %15 = load ptr, ptr %3, align 8, !tbaa !53
  %16 = getelementptr inbounds nuw %struct.GetBitContext, ptr %15, i32 0, i32 0
  %17 = load ptr, ptr %16, align 8, !tbaa !119
  %18 = load i32, ptr %6, align 4, !tbaa !60
  %19 = lshr i32 %18, 3
  %20 = zext i32 %19 to i64
  %21 = getelementptr inbounds nuw i8, ptr %17, i64 %20
  %22 = load i32, ptr %21, align 1, !tbaa !94
  %23 = load i32, ptr %6, align 4, !tbaa !60
  %24 = and i32 %23, 7
  %25 = lshr i32 %22, %24
  store i32 %25, ptr %7, align 4, !tbaa !60
  %26 = load i32, ptr %7, align 4, !tbaa !60
  %27 = load i32, ptr %4, align 4, !tbaa !60
  %28 = call i32 @zero_extend(i32 noundef %26, i32 noundef %27) #12
  store i32 %28, ptr %5, align 4, !tbaa !60
  %29 = load i32, ptr %8, align 4, !tbaa !60
  %30 = load i32, ptr %6, align 4, !tbaa !60
  %31 = load i32, ptr %4, align 4, !tbaa !60
  %32 = add i32 %30, %31
  %33 = icmp ugt i32 %29, %32
  br i1 %33, label %34, label %38

34:                                               ; preds = %2
  %35 = load i32, ptr %6, align 4, !tbaa !60
  %36 = load i32, ptr %4, align 4, !tbaa !60
  %37 = add i32 %35, %36
  br label %40

38:                                               ; preds = %2
  %39 = load i32, ptr %8, align 4, !tbaa !60
  br label %40

40:                                               ; preds = %38, %34
  %41 = phi i32 [ %37, %34 ], [ %39, %38 ]
  store i32 %41, ptr %6, align 4, !tbaa !60
  %42 = load i32, ptr %6, align 4, !tbaa !60
  %43 = load ptr, ptr %3, align 8, !tbaa !53
  %44 = getelementptr inbounds nuw %struct.GetBitContext, ptr %43, i32 0, i32 2
  store i32 %42, ptr %44, align 8, !tbaa !117
  %45 = load i32, ptr %5, align 4, !tbaa !60
  call void @llvm.lifetime.end.p0(i64 4, ptr %8) #10
  call void @llvm.lifetime.end.p0(i64 4, ptr %7) #10
  call void @llvm.lifetime.end.p0(i64 4, ptr %6) #10
  call void @llvm.lifetime.end.p0(i64 4, ptr %5) #10
  ret i32 %45
}

; Function Attrs: inlinehint nounwind uwtable
define internal void @skip_bits(ptr noundef %0, i32 noundef %1) #6 {
  %3 = alloca ptr, align 8
  %4 = alloca i32, align 4
  %5 = alloca i32, align 4
  %6 = alloca i32, align 4
  store ptr %0, ptr %3, align 8, !tbaa !53
  store i32 %1, ptr %4, align 4, !tbaa !60
  call void @llvm.lifetime.start.p0(i64 4, ptr %5) #10
  %7 = load ptr, ptr %3, align 8, !tbaa !53
  %8 = getelementptr inbounds nuw %struct.GetBitContext, ptr %7, i32 0, i32 2
  %9 = load i32, ptr %8, align 8, !tbaa !117
  store i32 %9, ptr %5, align 4, !tbaa !60
  call void @llvm.lifetime.start.p0(i64 4, ptr %6) #10
  %10 = load ptr, ptr %3, align 8, !tbaa !53
  %11 = getelementptr inbounds nuw %struct.GetBitContext, ptr %10, i32 0, i32 4
  %12 = load i32, ptr %11, align 8, !tbaa !118
  store i32 %12, ptr %6, align 4, !tbaa !60
  %13 = load i32, ptr %6, align 4, !tbaa !60
  %14 = load i32, ptr %5, align 4, !tbaa !60
  %15 = load i32, ptr %4, align 4, !tbaa !60
  %16 = add i32 %14, %15
  %17 = icmp ugt i32 %13, %16
  br i1 %17, label %18, label %22

18:                                               ; preds = %2
  %19 = load i32, ptr %5, align 4, !tbaa !60
  %20 = load i32, ptr %4, align 4, !tbaa !60
  %21 = add i32 %19, %20
  br label %24

22:                                               ; preds = %2
  %23 = load i32, ptr %6, align 4, !tbaa !60
  br label %24

24:                                               ; preds = %22, %18
  %25 = phi i32 [ %21, %18 ], [ %23, %22 ]
  store i32 %25, ptr %5, align 4, !tbaa !60
  %26 = load i32, ptr %5, align 4, !tbaa !60
  %27 = load ptr, ptr %3, align 8, !tbaa !53
  %28 = getelementptr inbounds nuw %struct.GetBitContext, ptr %27, i32 0, i32 2
  store i32 %26, ptr %28, align 8, !tbaa !117
  call void @llvm.lifetime.end.p0(i64 4, ptr %6) #10
  call void @llvm.lifetime.end.p0(i64 4, ptr %5) #10
  ret void
}

; Function Attrs: inlinehint nounwind uwtable
define internal i32 @show_bits(ptr noundef %0, i32 noundef %1) #6 {
  %3 = alloca ptr, align 8
  %4 = alloca i32, align 4
  %5 = alloca i32, align 4
  %6 = alloca i32, align 4
  %7 = alloca i32, align 4
  store ptr %0, ptr %3, align 8, !tbaa !53
  store i32 %1, ptr %4, align 4, !tbaa !60
  call void @llvm.lifetime.start.p0(i64 4, ptr %5) #10
  call void @llvm.lifetime.start.p0(i64 4, ptr %6) #10
  %8 = load ptr, ptr %3, align 8, !tbaa !53
  %9 = getelementptr inbounds nuw %struct.GetBitContext, ptr %8, i32 0, i32 2
  %10 = load i32, ptr %9, align 8, !tbaa !117
  store i32 %10, ptr %6, align 4, !tbaa !60
  call void @llvm.lifetime.start.p0(i64 4, ptr %7) #10
  %11 = load ptr, ptr %3, align 8, !tbaa !53
  %12 = getelementptr inbounds nuw %struct.GetBitContext, ptr %11, i32 0, i32 0
  %13 = load ptr, ptr %12, align 8, !tbaa !119
  %14 = load i32, ptr %6, align 4, !tbaa !60
  %15 = lshr i32 %14, 3
  %16 = zext i32 %15 to i64
  %17 = getelementptr inbounds nuw i8, ptr %13, i64 %16
  %18 = load i32, ptr %17, align 1, !tbaa !94
  %19 = load i32, ptr %6, align 4, !tbaa !60
  %20 = and i32 %19, 7
  %21 = lshr i32 %18, %20
  store i32 %21, ptr %7, align 4, !tbaa !60
  %22 = load i32, ptr %7, align 4, !tbaa !60
  %23 = load i32, ptr %4, align 4, !tbaa !60
  %24 = call i32 @zero_extend(i32 noundef %22, i32 noundef %23) #12
  store i32 %24, ptr %5, align 4, !tbaa !60
  %25 = load i32, ptr %5, align 4, !tbaa !60
  call void @llvm.lifetime.end.p0(i64 4, ptr %7) #10
  call void @llvm.lifetime.end.p0(i64 4, ptr %6) #10
  call void @llvm.lifetime.end.p0(i64 4, ptr %5) #10
  ret i32 %25
}

; Function Attrs: inlinehint nounwind uwtable
define internal i32 @get_bits_left(ptr noundef %0) #6 {
  %2 = alloca ptr, align 8
  store ptr %0, ptr %2, align 8, !tbaa !53
  %3 = load ptr, ptr %2, align 8, !tbaa !53
  %4 = getelementptr inbounds nuw %struct.GetBitContext, ptr %3, i32 0, i32 3
  %5 = load i32, ptr %4, align 4, !tbaa !123
  %6 = load ptr, ptr %2, align 8, !tbaa !53
  %7 = call i32 @get_bits_count(ptr noundef %6)
  %8 = sub nsw i32 %5, %7
  ret i32 %8
}

; Function Attrs: nounwind uwtable
define internal i32 @read_code(ptr noundef %0, ptr noundef %1, ptr noundef %2, ptr noundef %3, i32 noundef %4) #1 {
  %6 = alloca i32, align 4
  %7 = alloca ptr, align 8
  %8 = alloca ptr, align 8
  %9 = alloca ptr, align 8
  %10 = alloca ptr, align 8
  %11 = alloca i32, align 4
  %12 = alloca i32, align 4
  %13 = alloca i32, align 4
  %14 = alloca i32, align 4
  %15 = alloca i32, align 4
  store ptr %0, ptr %7, align 8, !tbaa !53
  store ptr %1, ptr %8, align 8, !tbaa !50
  store ptr %2, ptr %9, align 8, !tbaa !50
  store ptr %3, ptr %10, align 8, !tbaa !50
  store i32 %4, ptr %11, align 4, !tbaa !60
  call void @llvm.lifetime.start.p0(i64 4, ptr %12) #10
  store i32 0, ptr %12, align 4, !tbaa !60
  call void @llvm.lifetime.start.p0(i64 4, ptr %13) #10
  store i32 0, ptr %13, align 4, !tbaa !60
  call void @llvm.lifetime.start.p0(i64 4, ptr %14) #10
  %16 = load ptr, ptr %7, align 8, !tbaa !53
  %17 = call i32 @get_bits_left(ptr noundef %16)
  %18 = icmp slt i32 %17, 2
  br i1 %18, label %19, label %20

19:                                               ; preds = %5
  store i32 -1094995529, ptr %6, align 4
  store i32 1, ptr %15, align 4
  br label %128

20:                                               ; preds = %5
  %21 = load ptr, ptr %7, align 8, !tbaa !53
  %22 = call i32 @show_bits(ptr noundef %21, i32 noundef 2)
  %23 = icmp ne i32 %22, 0
  br i1 %23, label %24, label %67

24:                                               ; preds = %20
  %25 = load ptr, ptr %7, align 8, !tbaa !53
  %26 = call i32 @show_bits(ptr noundef %25, i32 noundef 4)
  switch i32 %26, label %42 [
    i32 1, label %27
    i32 9, label %27
    i32 2, label %28
    i32 3, label %29
    i32 5, label %30
    i32 13, label %30
    i32 6, label %31
    i32 7, label %32
    i32 10, label %33
    i32 11, label %34
    i32 14, label %35
    i32 15, label %36
  ]

27:                                               ; preds = %24, %24
  store i32 1, ptr %12, align 4, !tbaa !60
  store i32 3, ptr %13, align 4, !tbaa !60
  br label %43

28:                                               ; preds = %24
  store i32 3, ptr %12, align 4, !tbaa !60
  store i32 4, ptr %13, align 4, !tbaa !60
  br label %43

29:                                               ; preds = %24
  store i32 7, ptr %12, align 4, !tbaa !60
  store i32 4, ptr %13, align 4, !tbaa !60
  br label %43

30:                                               ; preds = %24, %24
  store i32 2, ptr %12, align 4, !tbaa !60
  store i32 3, ptr %13, align 4, !tbaa !60
  br label %43

31:                                               ; preds = %24
  store i32 4, ptr %12, align 4, !tbaa !60
  store i32 4, ptr %13, align 4, !tbaa !60
  br label %43

32:                                               ; preds = %24
  store i32 8, ptr %12, align 4, !tbaa !60
  store i32 4, ptr %13, align 4, !tbaa !60
  br label %43

33:                                               ; preds = %24
  store i32 5, ptr %12, align 4, !tbaa !60
  store i32 4, ptr %13, align 4, !tbaa !60
  br label %43

34:                                               ; preds = %24
  store i32 9, ptr %12, align 4, !tbaa !60
  store i32 4, ptr %13, align 4, !tbaa !60
  br label %43

35:                                               ; preds = %24
  store i32 6, ptr %12, align 4, !tbaa !60
  store i32 4, ptr %13, align 4, !tbaa !60
  br label %43

36:                                               ; preds = %24
  %37 = load ptr, ptr %7, align 8, !tbaa !53
  %38 = call i32 @show_bits(ptr noundef %37, i32 noundef 5)
  %39 = and i32 %38, 16
  %40 = or i32 %39, 160
  %41 = lshr i32 %40, 4
  store i32 %41, ptr %12, align 4, !tbaa !60
  store i32 5, ptr %13, align 4, !tbaa !60
  br label %43

42:                                               ; preds = %24
  store i32 -1094995529, ptr %6, align 4
  store i32 1, ptr %15, align 4
  br label %128

43:                                               ; preds = %36, %35, %34, %33, %32, %31, %30, %29, %28, %27
  %44 = load ptr, ptr %7, align 8, !tbaa !53
  %45 = load i32, ptr %13, align 4, !tbaa !60
  call void @skip_bits(ptr noundef %44, i32 noundef %45)
  %46 = load ptr, ptr %7, align 8, !tbaa !53
  %47 = load i32, ptr %12, align 4, !tbaa !60
  %48 = call i32 @get_bits(ptr noundef %46, i32 noundef %47)
  %49 = load ptr, ptr %9, align 8, !tbaa !50
  store i32 %48, ptr %49, align 4, !tbaa !60
  %50 = load ptr, ptr %10, align 8, !tbaa !50
  store i32 1, ptr %50, align 4, !tbaa !60
  %51 = load ptr, ptr %8, align 8, !tbaa !50
  store i32 0, ptr %51, align 4, !tbaa !60
  %52 = load i32, ptr %12, align 4, !tbaa !60
  %53 = sub nsw i32 %52, 1
  %54 = shl i32 1, %53
  store i32 %54, ptr %14, align 4, !tbaa !60
  %55 = load ptr, ptr %9, align 8, !tbaa !50
  %56 = load i32, ptr %55, align 4, !tbaa !60
  %57 = load i32, ptr %14, align 4, !tbaa !60
  %58 = icmp slt i32 %56, %57
  br i1 %58, label %59, label %66

59:                                               ; preds = %43
  %60 = load i32, ptr %14, align 4, !tbaa !60
  %61 = load ptr, ptr %9, align 8, !tbaa !50
  %62 = load i32, ptr %61, align 4, !tbaa !60
  %63 = add nsw i32 %60, %62
  %64 = sub nsw i32 0, %63
  %65 = load ptr, ptr %9, align 8, !tbaa !50
  store i32 %64, ptr %65, align 4, !tbaa !60
  br label %66

66:                                               ; preds = %59, %43
  br label %127

67:                                               ; preds = %20
  %68 = load ptr, ptr %7, align 8, !tbaa !53
  %69 = call i32 @show_bits(ptr noundef %68, i32 noundef 3)
  %70 = and i32 %69, 4
  %71 = icmp ne i32 %70, 0
  br i1 %71, label %72, label %110

72:                                               ; preds = %67
  %73 = load ptr, ptr %7, align 8, !tbaa !53
  call void @skip_bits(ptr noundef %73, i32 noundef 3)
  %74 = load i32, ptr %11, align 4, !tbaa !60
  %75 = icmp eq i32 %74, 1
  br i1 %75, label %76, label %100

76:                                               ; preds = %72
  %77 = load ptr, ptr %7, align 8, !tbaa !53
  %78 = call i32 @show_bits(ptr noundef %77, i32 noundef 4)
  %79 = icmp ne i32 %78, 0
  br i1 %79, label %80, label %94

80:                                               ; preds = %76
  %81 = load ptr, ptr %7, align 8, !tbaa !53
  %82 = call i32 @show_bits(ptr noundef %81, i32 noundef 4)
  %83 = icmp eq i32 %82, 1
  br i1 %83, label %84, label %89

84:                                               ; preds = %80
  %85 = load ptr, ptr %7, align 8, !tbaa !53
  call void @skip_bits(ptr noundef %85, i32 noundef 4)
  %86 = load ptr, ptr %7, align 8, !tbaa !53
  %87 = call i32 @get_bits(ptr noundef %86, i32 noundef 16)
  %88 = load ptr, ptr %8, align 8, !tbaa !50
  store i32 %87, ptr %88, align 4, !tbaa !60
  br label %93

89:                                               ; preds = %80
  %90 = load ptr, ptr %7, align 8, !tbaa !53
  %91 = call i32 @get_bits(ptr noundef %90, i32 noundef 4)
  %92 = load ptr, ptr %8, align 8, !tbaa !50
  store i32 %91, ptr %92, align 4, !tbaa !60
  br label %93

93:                                               ; preds = %89, %84
  br label %99

94:                                               ; preds = %76
  %95 = load ptr, ptr %7, align 8, !tbaa !53
  call void @skip_bits(ptr noundef %95, i32 noundef 4)
  %96 = load ptr, ptr %7, align 8, !tbaa !53
  %97 = call i32 @get_bits(ptr noundef %96, i32 noundef 10)
  %98 = load ptr, ptr %8, align 8, !tbaa !50
  store i32 %97, ptr %98, align 4, !tbaa !60
  br label %99

99:                                               ; preds = %94, %93
  br label %108

100:                                              ; preds = %72
  %101 = load i32, ptr %11, align 4, !tbaa !60
  %102 = icmp eq i32 %101, 0
  br i1 %102, label %103, label %107

103:                                              ; preds = %100
  %104 = load ptr, ptr %7, align 8, !tbaa !53
  %105 = call i32 @get_bits(ptr noundef %104, i32 noundef 10)
  %106 = load ptr, ptr %8, align 8, !tbaa !50
  store i32 %105, ptr %106, align 4, !tbaa !60
  br label %107

107:                                              ; preds = %103, %100
  br label %108

108:                                              ; preds = %107, %99
  %109 = load ptr, ptr %9, align 8, !tbaa !50
  store i32 0, ptr %109, align 4, !tbaa !60
  br label %126

110:                                              ; preds = %67
  %111 = load ptr, ptr %7, align 8, !tbaa !53
  call void @skip_bits(ptr noundef %111, i32 noundef 3)
  %112 = load i32, ptr %11, align 4, !tbaa !60
  %113 = icmp eq i32 %112, 0
  br i1 %113, label %114, label %118

114:                                              ; preds = %110
  %115 = load ptr, ptr %7, align 8, !tbaa !53
  %116 = call i32 @get_bits(ptr noundef %115, i32 noundef 4)
  %117 = load ptr, ptr %8, align 8, !tbaa !50
  store i32 %116, ptr %117, align 4, !tbaa !60
  br label %124

118:                                              ; preds = %110
  %119 = load i32, ptr %11, align 4, !tbaa !60
  %120 = icmp eq i32 %119, 1
  br i1 %120, label %121, label %123

121:                                              ; preds = %118
  %122 = load ptr, ptr %8, align 8, !tbaa !50
  store i32 0, ptr %122, align 4, !tbaa !60
  br label %123

123:                                              ; preds = %121, %118
  br label %124

124:                                              ; preds = %123, %114
  %125 = load ptr, ptr %9, align 8, !tbaa !50
  store i32 0, ptr %125, align 4, !tbaa !60
  br label %126

126:                                              ; preds = %124, %108
  br label %127

127:                                              ; preds = %126, %66
  store i32 0, ptr %6, align 4
  store i32 1, ptr %15, align 4
  br label %128

128:                                              ; preds = %127, %42, %19
  call void @llvm.lifetime.end.p0(i64 4, ptr %14) #10
  call void @llvm.lifetime.end.p0(i64 4, ptr %13) #10
  call void @llvm.lifetime.end.p0(i64 4, ptr %12) #10
  %129 = load i32, ptr %6, align 4
  ret i32 %129
}