; Function Attrs: mustprogress nofree norecurse nosync nounwind willreturn memory(read, argmem: readwrite, inaccessiblemem: none) uwtable
define internal fastcc range(i32 -1094995529, 1) i32 @read_code(ptr noundef captures(none) %0, ptr noundef nonnull writeonly captures(none) %1, ptr noundef nonnull captures(none) %2, ptr noundef writeonly captures(none) %3, i32 noundef range(i32 0, 2) %4) unnamed_addr #10 {
  %6 = getelementptr i8, ptr %0, i64 16
  %.val = load i32, ptr %6, align 8, !tbaa !69
  %7 = getelementptr i8, ptr %0, i64 20
  %.val49 = load i32, ptr %7, align 4, !tbaa !66
  %8 = sub nsw i32 %.val49, %.val
  %9 = icmp slt i32 %8, 2
  br i1 %9, label %108, label %10

10:                                               ; preds = %5
  %.val50 = load ptr, ptr %0, align 8, !tbaa !65
  %11 = lshr i32 %.val, 3
  %12 = zext nneg i32 %11 to i64
  %13 = getelementptr inbounds nuw i8, ptr %.val50, i64 %12
  %14 = load i32, ptr %13, align 1, !tbaa !52
  %15 = and i32 %.val, 7
  %16 = lshr i32 %14, %15
  %17 = and i32 %16, 3
  %.not = icmp eq i32 %17, 0
  br i1 %.not, label %55, label %18

18:                                               ; preds = %10
  %19 = and i32 %16, 15
  switch i32 %19, label %108 [
    i32 1, label %32
    i32 9, label %32
    i32 2, label %20
    i32 3, label %21
    i32 5, label %22
    i32 13, label %22
    i32 6, label %23
    i32 7, label %24
    i32 10, label %25
    i32 11, label %26
    i32 14, label %27
    i32 15, label %28
  ]

20:                                               ; preds = %18
  br label %32

21:                                               ; preds = %18
  br label %32

22:                                               ; preds = %18, %18
  br label %32

23:                                               ; preds = %18
  br label %32

24:                                               ; preds = %18
  br label %32

25:                                               ; preds = %18
  br label %32

26:                                               ; preds = %18
  br label %32

27:                                               ; preds = %18
  br label %32

28:                                               ; preds = %18
  %29 = lshr i32 %16, 4
  %30 = and i32 %29, 1
  %31 = or disjoint i32 %30, 10
  br label %32

32:                                               ; preds = %18, %18, %28, %27, %26, %25, %24, %23, %22, %21, %20
  %.042 = phi i32 [ %31, %28 ], [ 6, %27 ], [ 9, %26 ], [ 5, %25 ], [ 8, %24 ], [ 4, %23 ], [ 2, %22 ], [ 7, %21 ], [ 3, %20 ], [ 1, %18 ], [ 1, %18 ]
  %.041 = phi i32 [ 5, %28 ], [ 4, %27 ], [ 4, %26 ], [ 4, %25 ], [ 4, %24 ], [ 4, %23 ], [ 3, %22 ], [ 4, %21 ], [ 4, %20 ], [ 3, %18 ], [ 3, %18 ]
  %33 = getelementptr inbounds nuw i8, ptr %0, i64 24
  %34 = load i32, ptr %33, align 8, !tbaa !67
  %35 = add i32 %.041, %.val
  %36 = tail call i32 @llvm.umin.i32(i32 %34, i32 %35)
  store i32 %36, ptr %6, align 8, !tbaa !69
  %37 = lshr i32 %36, 3
  %38 = zext nneg i32 %37 to i64
  %39 = getelementptr inbounds nuw i8, ptr %.val50, i64 %38
  %40 = load i32, ptr %39, align 1, !tbaa !52
  %41 = and i32 %36, 7
  %42 = lshr i32 %40, %41
  %43 = sub nuw nsw i32 32, %.042
  %44 = lshr i32 -1, %43
  %45 = and i32 %42, %44
  %46 = add i32 %36, %.042
  %47 = tail call i32 @llvm.umin.i32(i32 %34, i32 %46)
  store i32 %47, ptr %6, align 8, !tbaa !69
  store i32 %45, ptr %2, align 4, !tbaa !72
  store i32 1, ptr %3, align 4, !tbaa !72
  store i32 0, ptr %1, align 4, !tbaa !72
  %48 = add nsw i32 %.042, -1
  %49 = shl nuw nsw i32 1, %48
  %50 = load i32, ptr %2, align 4, !tbaa !72
  %51 = icmp slt i32 %50, %49
  br i1 %51, label %52, label %108

52:                                               ; preds = %32
  %53 = add nsw i32 %49, %50
  %54 = sub nsw i32 0, %53
  br label %.sink.split

55:                                               ; preds = %10
  %56 = and i32 %16, 4
  %.not46 = icmp eq i32 %56, 0
  %57 = getelementptr inbounds nuw i8, ptr %0, i64 24
  %58 = load i32, ptr %57, align 8, !tbaa !67
  %59 = add i32 %.val, 3
  %60 = tail call i32 @llvm.umin.i32(i32 %58, i32 %59)
  store i32 %60, ptr %6, align 8, !tbaa !69
  %61 = icmp eq i32 %4, 0
  br i1 %.not46, label %96, label %62

62:                                               ; preds = %55
  %63 = lshr i32 %60, 3
  %64 = zext nneg i32 %63 to i64
  %65 = getelementptr inbounds nuw i8, ptr %.val50, i64 %64
  %66 = load i32, ptr %65, align 1, !tbaa !52
  %67 = and i32 %60, 7
  %68 = lshr i32 %66, %67
  br i1 %61, label %91, label %69

69:                                               ; preds = %62
  %70 = and i32 %68, 15
  %71 = add i32 %60, 4
  %72 = tail call i32 @llvm.umin.i32(i32 %58, i32 %71)
  store i32 %72, ptr %6, align 8, !tbaa !69
  switch i32 %70, label %95 [
    i32 0, label %82
    i32 1, label %73
  ]

73:                                               ; preds = %69
  %74 = lshr i32 %72, 3
  %75 = zext nneg i32 %74 to i64
  %76 = getelementptr inbounds nuw i8, ptr %.val50, i64 %75
  %77 = load i32, ptr %76, align 1, !tbaa !52
  %78 = and i32 %72, 7
  %79 = lshr i32 %77, %78
  %80 = and i32 %79, 65535
  %81 = add i32 %72, 16
  br label %.sink.split63

82:                                               ; preds = %69
  %83 = lshr i32 %72, 3
  %84 = zext nneg i32 %83 to i64
  %85 = getelementptr inbounds nuw i8, ptr %.val50, i64 %84
  %86 = load i32, ptr %85, align 1, !tbaa !52
  %87 = and i32 %72, 7
  %88 = lshr i32 %86, %87
  %89 = and i32 %88, 1023
  %90 = add i32 %72, 10
  br label %.sink.split63

91:                                               ; preds = %62
  %92 = and i32 %68, 1023
  %93 = add i32 %60, 10
  br label %.sink.split63

.sink.split63:                                    ; preds = %73, %82, %91
  %.sink65 = phi i32 [ %93, %91 ], [ %90, %82 ], [ %81, %73 ]
  %.sink.ph = phi i32 [ %92, %91 ], [ %89, %82 ], [ %80, %73 ]
  %94 = tail call i32 @llvm.umin.i32(i32 %58, i32 %.sink65)
  store i32 %94, ptr %6, align 8, !tbaa !69
  br label %95

95:                                               ; preds = %.sink.split63, %69
  %.sink = phi i32 [ %70, %69 ], [ %.sink.ph, %.sink.split63 ]
  store i32 %.sink, ptr %1, align 4, !tbaa !72
  br label %.sink.split

96:                                               ; preds = %55
  br i1 %61, label %97, label %107

97:                                               ; preds = %96
  %98 = lshr i32 %60, 3
  %99 = zext nneg i32 %98 to i64
  %100 = getelementptr inbounds nuw i8, ptr %.val50, i64 %99
  %101 = load i32, ptr %100, align 1, !tbaa !52
  %102 = and i32 %60, 7
  %103 = lshr i32 %101, %102
  %104 = and i32 %103, 15
  %105 = add i32 %60, 4
  %106 = tail call i32 @llvm.umin.i32(i32 %58, i32 %105)
  store i32 %106, ptr %6, align 8, !tbaa !69
  br label %107

107:                                              ; preds = %96, %97
  %storemerge = phi i32 [ %104, %97 ], [ 0, %96 ]
  store i32 %storemerge, ptr %1, align 4, !tbaa !72
  br label %.sink.split

.sink.split:                                      ; preds = %95, %107, %52
  %.sink62 = phi i32 [ %54, %52 ], [ 0, %107 ], [ 0, %95 ]
  store i32 %.sink62, ptr %2, align 4, !tbaa !72
  br label %108

108:                                              ; preds = %.sink.split, %32, %18, %5
  %.0 = phi i32 [ -1094995529, %5 ], [ -1094995529, %18 ], [ 0, %32 ], [ 0, %.sink.split ]
  ret i32 %.0
}